BL51 BANKED LINKER/LOCATER V6.22                                                        07/08/2017  18:49:40  PAGE 1


BL51 BANKED LINKER/LOCATER V6.22, INVOKED BY:
C:\KEIL\C51\BIN\BL51.EXE dev_io.obj, LED_Key.obj, iic_comm.obj, ESP8266.obj, ssd1306.obj, ..\..\Target\Lib\LP\EZUSB.LIB,
>>  MQTTPacket.obj TO dev_io RAMSIZE (256)


MEMORY MODEL: SMALL


INPUT MODULES INCLUDED:
  dev_io.obj (DEV_IO)
  LED_Key.obj (LED_KEY)
  iic_comm.obj (IIC_COMM)
  ESP8266.obj (ESP8266)
  ssd1306.obj (SSD1306)
  ..\..\Target\Lib\LP\EZUSB.LIB (EZREGS)
  MQTTPacket.obj (MQTTPACKET)
  C:\KEIL\C51\LIB\C51S.LIB (?C_STARTUP)
  C:\KEIL\C51\LIB\C51S.LIB (?C?COPY)
  C:\KEIL\C51\LIB\C51S.LIB (?C?CLDOPTR)
  C:\KEIL\C51\LIB\C51S.LIB (?C?CSTOPTR)
  C:\KEIL\C51\LIB\C51S.LIB (?C?SIDIV)
  C:\KEIL\C51\LIB\C51S.LIB (STRLEN)
  C:\KEIL\C51\LIB\C51S.LIB (?C_INIT)
  C:\KEIL\C51\LIB\C51S.LIB (?C?CLDPTR)
  C:\KEIL\C51\LIB\C51S.LIB (?C?UIDIV)


LINK MAP OF MODULE:  dev_io (DEV_IO)


            TYPE    BASE      LENGTH    RELOCATION   SEGMENT NAME
            -----------------------------------------------------

            * * * * * * *   D A T A   M E M O R Y   * * * * * * *
            REG     0000H     0008H     ABSOLUTE     "REG BANK 0"
            DATA    0008H     0047H     UNIT         ?DT?ESP8266
            DATA    004FH     0011H     UNIT         _DATA_GROUP_
            DATA    0060H     0008H     UNIT         ?DT?_MQTTPACKET_ENCODE?MQTTPACKET
            DATA    0068H     0004H     UNIT         ?DT?_SERIAL0_SENDSTRING1?ESP8266
            DATA    006CH     0003H     UNIT         ?DT?ABC1SHOW?ESP8266
            DATA    006FH     0003H     UNIT         ?DT?SSD1306
            DATA    0072H     0002H     UNIT         ?DT?DEV_IO
            DATA    0074H     0002H     UNIT         ?DT?SSD1306_DRAW?SSD1306
            IDATA   0076H     0001H     UNIT         ?STACK

            * * * * * * *  X D A T A   M E M O R Y  * * * * * * *
                    0000H     E400H                  *** GAP ***
            XDATA   E400H     0001H     ABSOLUTE     
                    E401H     007FH                  *** GAP ***
            XDATA   E480H     0001H     ABSOLUTE     
                    E481H     0088H                  *** GAP ***
            XDATA   E509H     0001H     ABSOLUTE     
                    E50AH     00F6H                  *** GAP ***
            XDATA   E600H     0001H     ABSOLUTE     
            XDATA   E601H     0001H     ABSOLUTE     
            XDATA   E602H     0001H     ABSOLUTE     
            XDATA   E603H     0001H     ABSOLUTE     
            XDATA   E604H     0001H     ABSOLUTE     
BL51 BANKED LINKER/LOCATER V6.22                                                      07/08/2017  18:49:40  PAGE 2


            XDATA   E605H     0001H     ABSOLUTE     
            XDATA   E606H     0001H     ABSOLUTE     
            XDATA   E607H     0001H     ABSOLUTE     
            XDATA   E608H     0001H     ABSOLUTE     
            XDATA   E609H     0001H     ABSOLUTE     
            XDATA   E60AH     0001H     ABSOLUTE     
            XDATA   E60BH     0001H     ABSOLUTE     
            XDATA   E60CH     0001H     ABSOLUTE     
                    E60DH     0003H                  *** GAP ***
            XDATA   E610H     0001H     ABSOLUTE     
            XDATA   E611H     0001H     ABSOLUTE     
            XDATA   E612H     0001H     ABSOLUTE     
            XDATA   E613H     0001H     ABSOLUTE     
            XDATA   E614H     0001H     ABSOLUTE     
            XDATA   E615H     0001H     ABSOLUTE     
                    E616H     0002H                  *** GAP ***
            XDATA   E618H     0001H     ABSOLUTE     
            XDATA   E619H     0001H     ABSOLUTE     
            XDATA   E61AH     0001H     ABSOLUTE     
            XDATA   E61BH     0001H     ABSOLUTE     
                    E61CH     0004H                  *** GAP ***
            XDATA   E620H     0001H     ABSOLUTE     
            XDATA   E621H     0001H     ABSOLUTE     
            XDATA   E622H     0001H     ABSOLUTE     
            XDATA   E623H     0001H     ABSOLUTE     
            XDATA   E624H     0001H     ABSOLUTE     
            XDATA   E625H     0001H     ABSOLUTE     
            XDATA   E626H     0001H     ABSOLUTE     
            XDATA   E627H     0001H     ABSOLUTE     
            XDATA   E628H     0001H     ABSOLUTE     
            XDATA   E629H     0001H     ABSOLUTE     
            XDATA   E62AH     0001H     ABSOLUTE     
            XDATA   E62BH     0001H     ABSOLUTE     
            XDATA   E62CH     0001H     ABSOLUTE     
            XDATA   E62DH     0001H     ABSOLUTE     
            XDATA   E62EH     0001H     ABSOLUTE     
            XDATA   E62FH     0001H     ABSOLUTE     
            XDATA   E630H     0001H     ABSOLUTE     
            XDATA   E631H     0001H     ABSOLUTE     
            XDATA   E632H     0001H     ABSOLUTE     
            XDATA   E633H     0001H     ABSOLUTE     
            XDATA   E634H     0001H     ABSOLUTE     
            XDATA   E635H     0001H     ABSOLUTE     
            XDATA   E636H     0001H     ABSOLUTE     
            XDATA   E637H     0001H     ABSOLUTE     
                    E638H     0008H                  *** GAP ***
            XDATA   E640H     0001H     ABSOLUTE     
            XDATA   E641H     0001H     ABSOLUTE     
            XDATA   E642H     0001H     ABSOLUTE     
            XDATA   E643H     0001H     ABSOLUTE     
                    E644H     0004H                  *** GAP ***
            XDATA   E648H     0001H     ABSOLUTE     
            XDATA   E649H     0001H     ABSOLUTE     
                    E64AH     0006H                  *** GAP ***
            XDATA   E650H     0001H     ABSOLUTE     
            XDATA   E651H     0001H     ABSOLUTE     
            XDATA   E652H     0001H     ABSOLUTE     
BL51 BANKED LINKER/LOCATER V6.22                                                      07/08/2017  18:49:40  PAGE 3


            XDATA   E653H     0001H     ABSOLUTE     
            XDATA   E654H     0001H     ABSOLUTE     
            XDATA   E655H     0001H     ABSOLUTE     
            XDATA   E656H     0001H     ABSOLUTE     
            XDATA   E657H     0001H     ABSOLUTE     
            XDATA   E658H     0001H     ABSOLUTE     
            XDATA   E659H     0001H     ABSOLUTE     
            XDATA   E65AH     0001H     ABSOLUTE     
            XDATA   E65BH     0001H     ABSOLUTE     
            XDATA   E65CH     0001H     ABSOLUTE     
            XDATA   E65DH     0001H     ABSOLUTE     
            XDATA   E65EH     0001H     ABSOLUTE     
            XDATA   E65FH     0001H     ABSOLUTE     
            XDATA   E660H     0001H     ABSOLUTE     
            XDATA   E661H     0001H     ABSOLUTE     
            XDATA   E662H     0001H     ABSOLUTE     
            XDATA   E663H     0001H     ABSOLUTE     
            XDATA   E664H     0001H     ABSOLUTE     
            XDATA   E665H     0001H     ABSOLUTE     
            XDATA   E666H     0001H     ABSOLUTE     
            XDATA   E667H     0001H     ABSOLUTE     
            XDATA   E668H     0001H     ABSOLUTE     
                    E669H     0007H                  *** GAP ***
            XDATA   E670H     0001H     ABSOLUTE     
            XDATA   E671H     0001H     ABSOLUTE     
            XDATA   E672H     0001H     ABSOLUTE     
                    E673H     0005H                  *** GAP ***
            XDATA   E678H     0001H     ABSOLUTE     
            XDATA   E679H     0001H     ABSOLUTE     
            XDATA   E67AH     0001H     ABSOLUTE     
            XDATA   E67BH     0001H     ABSOLUTE     
            XDATA   E67CH     0001H     ABSOLUTE     
            XDATA   E67DH     0001H     ABSOLUTE     
            XDATA   E67EH     0001H     ABSOLUTE     
            XDATA   E67FH     0001H     ABSOLUTE     
            XDATA   E680H     0001H     ABSOLUTE     
            XDATA   E681H     0001H     ABSOLUTE     
            XDATA   E682H     0001H     ABSOLUTE     
            XDATA   E683H     0001H     ABSOLUTE     
            XDATA   E684H     0001H     ABSOLUTE     
            XDATA   E685H     0001H     ABSOLUTE     
            XDATA   E686H     0001H     ABSOLUTE     
            XDATA   E687H     0001H     ABSOLUTE     
                    E688H     0002H                  *** GAP ***
            XDATA   E68AH     0001H     ABSOLUTE     
            XDATA   E68BH     0001H     ABSOLUTE     
                    E68CH     0001H                  *** GAP ***
            XDATA   E68DH     0001H     ABSOLUTE     
                    E68EH     0001H                  *** GAP ***
            XDATA   E68FH     0001H     ABSOLUTE     
            XDATA   E690H     0001H     ABSOLUTE     
            XDATA   E691H     0001H     ABSOLUTE     
                    E692H     0002H                  *** GAP ***
            XDATA   E694H     0001H     ABSOLUTE     
            XDATA   E695H     0001H     ABSOLUTE     
                    E696H     0002H                  *** GAP ***
            XDATA   E698H     0001H     ABSOLUTE     
BL51 BANKED LINKER/LOCATER V6.22                                                      07/08/2017  18:49:40  PAGE 4


            XDATA   E699H     0001H     ABSOLUTE     
                    E69AH     0002H                  *** GAP ***
            XDATA   E69CH     0001H     ABSOLUTE     
            XDATA   E69DH     0001H     ABSOLUTE     
                    E69EH     0002H                  *** GAP ***
            XDATA   E6A0H     0001H     ABSOLUTE     
            XDATA   E6A1H     0001H     ABSOLUTE     
            XDATA   E6A2H     0001H     ABSOLUTE     
            XDATA   E6A3H     0001H     ABSOLUTE     
            XDATA   E6A4H     0001H     ABSOLUTE     
            XDATA   E6A5H     0001H     ABSOLUTE     
            XDATA   E6A6H     0001H     ABSOLUTE     
            XDATA   E6A7H     0001H     ABSOLUTE     
            XDATA   E6A8H     0001H     ABSOLUTE     
            XDATA   E6A9H     0001H     ABSOLUTE     
            XDATA   E6AAH     0001H     ABSOLUTE     
            XDATA   E6ABH     0001H     ABSOLUTE     
            XDATA   E6ACH     0001H     ABSOLUTE     
            XDATA   E6ADH     0001H     ABSOLUTE     
            XDATA   E6AEH     0001H     ABSOLUTE     
            XDATA   E6AFH     0001H     ABSOLUTE     
            XDATA   E6B0H     0001H     ABSOLUTE     
            XDATA   E6B1H     0001H     ABSOLUTE     
            XDATA   E6B2H     0001H     ABSOLUTE     
            XDATA   E6B3H     0001H     ABSOLUTE     
            XDATA   E6B4H     0001H     ABSOLUTE     
            XDATA   E6B5H     0001H     ABSOLUTE     
                    E6B6H     0002H                  *** GAP ***
            XDATA   E6B8H     0008H     ABSOLUTE     
            XDATA   E6C0H     0001H     ABSOLUTE     
            XDATA   E6C1H     0001H     ABSOLUTE     
            XDATA   E6C2H     0001H     ABSOLUTE     
            XDATA   E6C3H     0001H     ABSOLUTE     
            XDATA   E6C4H     0001H     ABSOLUTE     
            XDATA   E6C5H     0001H     ABSOLUTE     
            XDATA   E6C6H     0001H     ABSOLUTE     
            XDATA   E6C7H     0001H     ABSOLUTE     
            XDATA   E6C8H     0001H     ABSOLUTE     
            XDATA   E6C9H     0001H     ABSOLUTE     
            XDATA   E6CAH     0001H     ABSOLUTE     
            XDATA   E6CBH     0001H     ABSOLUTE     
            XDATA   E6CCH     0001H     ABSOLUTE     
            XDATA   E6CDH     0001H     ABSOLUTE     
            XDATA   E6CEH     0001H     ABSOLUTE     
            XDATA   E6CFH     0001H     ABSOLUTE     
            XDATA   E6D0H     0001H     ABSOLUTE     
            XDATA   E6D1H     0001H     ABSOLUTE     
            XDATA   E6D2H     0001H     ABSOLUTE     
            XDATA   E6D3H     0001H     ABSOLUTE     
            XDATA   E6D4H     0001H     ABSOLUTE     
                    E6D5H     0005H                  *** GAP ***
            XDATA   E6DAH     0001H     ABSOLUTE     
            XDATA   E6DBH     0001H     ABSOLUTE     
            XDATA   E6DCH     0001H     ABSOLUTE     
                    E6DDH     0005H                  *** GAP ***
            XDATA   E6E2H     0001H     ABSOLUTE     
            XDATA   E6E3H     0001H     ABSOLUTE     
BL51 BANKED LINKER/LOCATER V6.22                                                      07/08/2017  18:49:40  PAGE 5


            XDATA   E6E4H     0001H     ABSOLUTE     
                    E6E5H     0005H                  *** GAP ***
            XDATA   E6EAH     0001H     ABSOLUTE     
            XDATA   E6EBH     0001H     ABSOLUTE     
            XDATA   E6ECH     0001H     ABSOLUTE     
                    E6EDH     0003H                  *** GAP ***
            XDATA   E6F0H     0001H     ABSOLUTE     
            XDATA   E6F1H     0001H     ABSOLUTE     
            XDATA   E6F2H     0001H     ABSOLUTE     
            XDATA   E6F3H     0001H     ABSOLUTE     
            XDATA   E6F4H     0001H     ABSOLUTE     
            XDATA   E6F5H     0001H     ABSOLUTE     
                    E6F6H     0002H                  *** GAP ***
            XDATA   E6F8H     0001H     ABSOLUTE     
            XDATA   E6F9H     0001H     ABSOLUTE     
            XDATA   E6FAH     0001H     ABSOLUTE     
            XDATA   E6FBH     0001H     ABSOLUTE     
            XDATA   E6FCH     0001H     ABSOLUTE     
            XDATA   E6FDH     0001H     ABSOLUTE     
            XDATA   E6FEH     0001H     ABSOLUTE     
                    E6FFH     0041H                  *** GAP ***
            XDATA   E740H     0040H     ABSOLUTE     
            XDATA   E780H     0040H     ABSOLUTE     
            XDATA   E7C0H     0040H     ABSOLUTE     
                    E800H     0800H                  *** GAP ***
            XDATA   F000H     0400H     ABSOLUTE     
            XDATA   F400H     0400H     ABSOLUTE     
            XDATA   F800H     0400H     ABSOLUTE     
            XDATA   FC00H     0400H     ABSOLUTE     

            * * * * * * *   C O D E   M E M O R Y   * * * * * * *
            CODE    0000H     0003H     ABSOLUTE     
            CODE    0003H     0020H     UNIT         ?PR?SSD1306_DRAW?SSD1306
            CODE    0023H     0003H     ABSOLUTE     
            CODE    0026H     0620H     UNIT         ?CO?SSD1306
            CODE    0646H     0253H     UNIT         ?CO?DEV_IO
            CODE    0899H     01E9H     UNIT         ?C?LIB_CODE
            CODE    0A82H     01ACH     UNIT         ?PR?MAIN?DEV_IO
            CODE    0C2EH     012DH     UNIT         ?PR?_SSD1306_PRINTF?SSD1306
            CODE    0D5BH     008CH     UNIT         ?C_C51STARTUP
            CODE    0DE7H     007EH     UNIT         ?PR?SSD1306_INITALIZE?SSD1306
            CODE    0E65H     006CH     UNIT         ?PR?ABC1SHOW?ESP8266
            CODE    0ED1H     0067H     UNIT         ?PR?_MQTTPACKET_ENCODE?MQTTPACKET
            CODE    0F38H     004EH     UNIT         ?PR?ABCSHOW?ESP8266
            CODE    0F86H     003AH     UNIT         ?PR?LEDKEYTEST?LED_KEY
            CODE    0FC0H     0038H     UNIT         ?PR?_SSD1306_PRINTCHAR?SSD1306
            CODE    0FF8H     0037H     UNIT         ?PR?_SERIAL0_SENDSTRING?ESP8266
            CODE    102FH     0037H     UNIT         ?PR?_SERIAL0_SENDSTRING1?ESP8266
            CODE    1066H     0033H     UNIT         ?PR?ISR_USART0?ESP8266
            CODE    1099H     0030H     UNIT         ?PR?SSD1306_CLEAR?SSD1306
            CODE    10C9H     0029H     UNIT         ?PR?LEDFLOW?LED_KEY
            CODE    10F2H     0029H     UNIT         ?PR?LEDFLOWREV?LED_KEY
            CODE    111BH     0028H     UNIT         ?PR?_I2CSEND?IIC_COMM
            CODE    1143H     0025H     UNIT         ?PR?_SERIAL0_SENDINT?ESP8266
            CODE    1168H     001DH     UNIT         ?PR?DELAY1MS?LED_KEY
            CODE    1185H     001CH     UNIT         ?PR?I2CREAD?IIC_COMM
            CODE    11A1H     001BH     UNIT         ?PR?SCANKEY?LED_KEY
BL51 BANKED LINKER/LOCATER V6.22                                                      07/08/2017  18:49:40  PAGE 6


            CODE    11BCH     0019H     UNIT         ?PR?SERIAL0_INIT?ESP8266
            CODE    11D5H     0018H     UNIT         ?PR?_WRITECOMMAND?SSD1306
            CODE    11EDH     0018H     UNIT         ?PR?_WRITEDATA?SSD1306
            CODE    1205H     0015H     UNIT         ?PR?LEDFLASH?LED_KEY
            CODE    121AH     0015H     UNIT         ?PR?_STRLEN?STRLEN
            CODE    122FH     0014H     UNIT         ?PR?_DELAY?LED_KEY
            CODE    1243H     000AH     UNIT         ?C_INITSEG
            CODE    124DH     0009H     UNIT         ?PR?I2CRESTART?IIC_COMM
            CODE    1256H     0009H     UNIT         ?PR?I2CSTOP?IIC_COMM
            CODE    125FH     0009H     UNIT         ?PR?I2CACK?IIC_COMM
            CODE    1268H     0009H     UNIT         ?PR?I2CNAK?IIC_COMM
            CODE    1271H     0008H     UNIT         ?PR?_SERIAL0_SENDCHAR?ESP8266
            CODE    1279H     0006H     UNIT         ?PR?I2CSTART?IIC_COMM
            CODE    127FH     0005H     UNIT         ?PR?I2CINIT?IIC_COMM
            CODE    1284H     0004H     UNIT         ?PR?SETUPPORTE?LED_KEY
            CODE    1288H     0001H     UNIT         ?PR?MQTT_CONNET?MQTTPACKET



OVERLAY MAP OF MODULE:   dev_io (DEV_IO)


SEGMENT                                     DATA_GROUP 
  +--> CALLED SEGMENT                     START    LENGTH
---------------------------------------------------------
?PR?ISR_USART0?ESP8266                    004FH    0003H

*** NEW ROOT ***************************************************

?C_C51STARTUP                             -----    -----
  +--> ?PR?MAIN?DEV_IO
  +--> ?C_INITSEG

?PR?MAIN?DEV_IO                           0052H    0006H
  +--> ?CO?DEV_IO
  +--> ?PR?_DELAY?LED_KEY
  +--> ?PR?LEDFLASH?LED_KEY
  +--> ?PR?I2CINIT?IIC_COMM
  +--> ?PR?SSD1306_INITALIZE?SSD1306
  +--> ?PR?SSD1306_CLEAR?SSD1306
  +--> ?PR?_SSD1306_PRINTF?SSD1306
  +--> ?PR?SERIAL0_INIT?ESP8266
  +--> ?PR?_SERIAL0_SENDSTRING?ESP8266
  +--> ?PR?_SERIAL0_SENDCHAR?ESP8266
  +--> ?PR?ABCSHOW?ESP8266

?PR?_DELAY?LED_KEY                        -----    -----
  +--> ?PR?DELAY1MS?LED_KEY

?PR?LEDFLASH?LED_KEY                      -----    -----
  +--> ?PR?_DELAY?LED_KEY

?PR?SSD1306_INITALIZE?SSD1306             -----    -----
  +--> ?PR?_WRITECOMMAND?SSD1306

?PR?_WRITECOMMAND?SSD1306                 005FH    0001H
  +--> ?PR?I2CSTART?IIC_COMM
BL51 BANKED LINKER/LOCATER V6.22                                                      07/08/2017  18:49:40  PAGE 7


  +--> ?PR?_I2CSEND?IIC_COMM
  +--> ?PR?I2CSTOP?IIC_COMM

?PR?SSD1306_CLEAR?SSD1306                 005BH    0002H
  +--> ?PR?_WRITECOMMAND?SSD1306
  +--> ?PR?_WRITEDATA?SSD1306

?PR?_WRITEDATA?SSD1306                    005FH    0001H
  +--> ?PR?I2CSTART?IIC_COMM
  +--> ?PR?_I2CSEND?IIC_COMM
  +--> ?PR?I2CSTOP?IIC_COMM

?PR?_SSD1306_PRINTF?SSD1306               0058H    0007H
  +--> ?PR?_WRITECOMMAND?SSD1306
  +--> ?PR?_STRLEN?STRLEN
  +--> ?CO?SSD1306
  +--> ?PR?_WRITEDATA?SSD1306

?PR?_SERIAL0_SENDSTRING?ESP8266           0058H    0004H
  +--> ?PR?_STRLEN?STRLEN
  +--> ?PR?_SERIAL0_SENDCHAR?ESP8266

?PR?ABCSHOW?ESP8266                       0058H    0003H
  +--> ?PR?SSD1306_CLEAR?SSD1306
  +--> ?PR?_WRITECOMMAND?SSD1306
  +--> ?PR?_SSD1306_PRINTCHAR?SSD1306

?PR?_SSD1306_PRINTCHAR?SSD1306            005BH    0002H
  +--> ?CO?SSD1306
  +--> ?PR?_WRITEDATA?SSD1306



SYMBOL TABLE OF MODULE:  dev_io (DEV_IO)

  VALUE           TYPE          NAME
  ----------------------------------

  -------         MODULE        DEV_IO
  C:0000H         SYMBOL        _ICE_DUMMY_
  D:0072H         PUBLIC        Lig
  C:07D8H         PUBLIC        Subs
  C:0A82H         PUBLIC        main
  D:0073H         PUBLIC        CountineCheck
  C:0895H         SYMBOL        _?ix1000
  C:0897H         SYMBOL        _?ix1001
  B:00B0H.5       PUBLIC        PD5
  B:00B0H.7       PUBLIC        PD7
  C:0753H         PUBLIC        Connect
  D:00B3H         PUBLIC        OEB
  D:00B5H         PUBLIC        OED
  D:00B6H         PUBLIC        OEE
  C:0838H         PUBLIC        Publish
  C:0745H         PUBLIC        at_mode
  -------         PROC          MAIN
  -------         DO            
  D:0052H         SYMBOL        len
BL51 BANKED LINKER/LOCATER V6.22                                                      07/08/2017  18:49:40  PAGE 8


  D:0054H         SYMBOL        header
  D:0056H         SYMBOL        flags
  C:0AE6H         SYMBOL        Restart
  C:0B3DH         SYMBOL        Reconnect
  -------         ENDDO         
  C:0A82H         LINE#         50
  C:0A82H         LINE#         51
  C:0A82H         LINE#         59
  C:0A87H         LINE#         60
  C:0A9CH         LINE#         61
  C:0AB3H         LINE#         63
  C:0AB6H         LINE#         64
  C:0AB9H         LINE#         65
  C:0ABCH         LINE#         66
  C:0AC3H         LINE#         67
  C:0AC5H         LINE#         68
  C:0AC7H         LINE#         69
  C:0ACAH         LINE#         71
  C:0ACDH         LINE#         73
  C:0AD0H         LINE#         74
  C:0AD3H         LINE#         75
  C:0ADCH         LINE#         76
  C:0AE3H         LINE#         78
  C:0AE6H         LINE#         79
  C:0AE6H         LINE#         80
  C:0AEFH         LINE#         81
  C:0AF6H         LINE#         83
  C:0AF9H         LINE#         84
  C:0AFCH         LINE#         85
  C:0B05H         LINE#         86
  C:0B0EH         LINE#         87
  C:0B13H         LINE#         88
  C:0B18H         LINE#         89
  C:0B1DH         LINE#         90
  C:0B24H         LINE#         91
  C:0B27H         LINE#         92
  C:0B2EH         LINE#         95
  C:0B31H         LINE#         96
  C:0B34H         LINE#         97
  C:0B3DH         LINE#         98
  C:0B3DH         LINE#         99
  C:0B40H         LINE#         100
  C:0B49H         LINE#         101
  C:0B4EH         LINE#         102
  C:0B53H         LINE#         103
  C:0B58H         LINE#         104
  C:0B5FH         LINE#         106
  C:0B69H         LINE#         111
  C:0B6CH         LINE#         112
  C:0B6FH         LINE#         113
  C:0B78H         LINE#         114
  C:0B7FH         LINE#         116
  C:0B88H         LINE#         117
  C:0B8DH         LINE#         118
  C:0B92H         LINE#         119
  C:0B97H         LINE#         120
  C:0B9EH         LINE#         121
BL51 BANKED LINKER/LOCATER V6.22                                                      07/08/2017  18:49:40  PAGE 9


  C:0BA1H         LINE#         122
  C:0BA4H         LINE#         124
  C:0BADH         LINE#         125
  C:0BB2H         LINE#         126
  C:0BB7H         LINE#         127
  C:0BBCH         LINE#         128
  C:0BC3H         LINE#         129
  C:0BCFH         LINE#         131
  C:0BD2H         LINE#         141
  C:0BD5H         LINE#         142
  C:0BD8H         LINE#         143
  C:0BDBH         LINE#         144
  C:0BE4H         LINE#         145
  C:0BE4H         LINE#         146
  C:0BEBH         LINE#         147
  C:0BF1H         LINE#         148
  C:0BF1H         LINE#         150
  C:0BF7H         LINE#         151
  C:0BF7H         LINE#         152
  C:0BFCH         LINE#         153
  C:0BFFH         LINE#         154
  C:0C02H         LINE#         155
  C:0C06H         LINE#         156
  C:0C11H         LINE#         158
  C:0C1AH         LINE#         159
  C:0C1AH         LINE#         160
  C:0C1EH         LINE#         161
  C:0C1EH         LINE#         162
  C:0C25H         LINE#         163
  C:0C28H         LINE#         164
  C:0C28H         LINE#         165
  C:0C28H         LINE#         166
  C:0C2BH         LINE#         167
  -------         ENDPROC       MAIN
  -------         ENDMOD        DEV_IO

  -------         MODULE        LED_KEY
  C:0000H         SYMBOL        _ICE_DUMMY_
  C:1284H         PUBLIC        SetupPortE
  C:1168H         PUBLIC        Delay1ms
  C:10F2H         PUBLIC        LEDFlowRev
  C:0F86H         PUBLIC        LEDKeyTest
  C:11A1H         PUBLIC        ScanKey
  C:1205H         PUBLIC        LEDFlash
  D:00B6H         PUBLIC        OEE
  D:00B1H         PUBLIC        IOE
  C:10C9H         PUBLIC        LEDFlow
  C:122FH         PUBLIC        _Delay
  -------         PROC          SETUPPORTE
  C:1284H         LINE#         4
  C:1284H         LINE#         5
  C:1284H         LINE#         6
  C:1287H         LINE#         7
  -------         ENDPROC       SETUPPORTE
  -------         PROC          DELAY1MS
  -------         DO            
  D:0004H         SYMBOL        j
BL51 BANKED LINKER/LOCATER V6.22                                                      07/08/2017  18:49:40  PAGE 10


  D:0006H         SYMBOL        i
  -------         ENDDO         
  C:1168H         LINE#         9
  C:1168H         LINE#         10
  C:1168H         LINE#         13
  C:116BH         LINE#         14
  C:116BH         LINE#         15
  C:1179H         LINE#         16
  C:1184H         LINE#         17
  -------         ENDPROC       DELAY1MS
  -------         PROC          _DELAY
  D:0002H         SYMBOL        ms
  C:122FH         LINE#         19
  C:1233H         LINE#         20
  C:1233H         LINE#         21
  C:1242H         LINE#         22
  -------         ENDPROC       _DELAY
  -------         PROC          SCANKEY
  C:11A1H         LINE#         23
  C:11A1H         LINE#         24
  C:11A1H         LINE#         25
  C:11A6H         LINE#         26
  C:11A9H         LINE#         27
  C:11AEH         LINE#         28
  C:11B1H         LINE#         29
  C:11B6H         LINE#         30
  C:11B9H         LINE#         31
  C:11BBH         LINE#         32
  -------         ENDPROC       SCANKEY
  -------         PROC          LEDFLOW
  C:10C9H         LINE#         33
  C:10C9H         LINE#         34
  C:10C9H         LINE#         35
  C:10CCH         LINE#         36
  C:10D3H         LINE#         37
  C:10D6H         LINE#         38
  C:10DDH         LINE#         39
  C:10E0H         LINE#         40
  C:10E7H         LINE#         41
  C:10EAH         LINE#         42
  C:10F1H         LINE#         43
  -------         ENDPROC       LEDFLOW
  -------         PROC          LEDFLOWREV
  C:10F2H         LINE#         45
  C:10F2H         LINE#         46
  C:10F2H         LINE#         47
  C:10F5H         LINE#         48
  C:10FCH         LINE#         49
  C:10FFH         LINE#         50
  C:1106H         LINE#         51
  C:1109H         LINE#         52
  C:1110H         LINE#         53
  C:1113H         LINE#         54
  C:111AH         LINE#         55
  -------         ENDPROC       LEDFLOWREV
  -------         PROC          LEDFLASH
  C:1205H         LINE#         57
BL51 BANKED LINKER/LOCATER V6.22                                                      07/08/2017  18:49:40  PAGE 11


  C:1205H         LINE#         58
  C:1205H         LINE#         59
  C:1208H         LINE#         60
  C:120FH         LINE#         61
  C:1212H         LINE#         62
  C:1219H         LINE#         63
  -------         ENDPROC       LEDFLASH
  -------         PROC          LEDKEYTEST
  -------         DO            
  D:0001H         SYMBOL        flag
  -------         ENDDO         
  C:0F86H         LINE#         65
  C:0F86H         LINE#         66
  C:0F86H         LINE#         67
  C:0F88H         LINE#         68
  C:0F8BH         LINE#         69
  C:0F8BH         LINE#         70
  C:0F8BH         LINE#         71
  C:0F98H         LINE#         72
  C:0F9CH         LINE#         73
  C:0FA0H         LINE#         74
  C:0FA2H         LINE#         75
  C:0FA2H         LINE#         77
  C:0FAEH         LINE#         78
  C:0FAEH         LINE#         79
  C:0FAEH         LINE#         80
  C:0FB1H         LINE#         81
  C:0FB3H         LINE#         82
  C:0FB3H         LINE#         83
  C:0FB6H         LINE#         84
  C:0FB8H         LINE#         85
  C:0FB8H         LINE#         86
  C:0FBBH         LINE#         87
  C:0FBDH         LINE#         88
  C:0FBDH         LINE#         89
  -------         ENDPROC       LEDKEYTEST
  -------         ENDMOD        LED_KEY

  -------         MODULE        IIC_COMM
  C:0000H         SYMBOL        _ICE_DUMMY_
  C:124DH         PUBLIC        I2CRestart
  C:1185H         PUBLIC        I2CRead
  B:0090H.0       PUBLIC        PB0
  B:0090H.1       PUBLIC        PB1
  C:111BH         PUBLIC        _I2CSend
  C:125FH         PUBLIC        I2CAck
  C:1279H         PUBLIC        I2CStart
  C:127FH         PUBLIC        I2CInit
  C:1268H         PUBLIC        I2CNak
  C:1256H         PUBLIC        I2CStop
  -------         PROC          I2CINIT
  C:127FH         LINE#         6
  C:127FH         LINE#         7
  C:127FH         LINE#         8
  C:1281H         LINE#         9
  C:1283H         LINE#         10
  -------         ENDPROC       I2CINIT
BL51 BANKED LINKER/LOCATER V6.22                                                      07/08/2017  18:49:40  PAGE 12


  -------         PROC          I2CSTART
  C:1279H         LINE#         12
  C:1279H         LINE#         13
  C:1279H         LINE#         14
  C:127BH         LINE#         15
  C:127CH         LINE#         16
  C:127EH         LINE#         17
  -------         ENDPROC       I2CSTART
  -------         PROC          I2CRESTART
  C:124DH         LINE#         19
  C:124DH         LINE#         20
  C:124DH         LINE#         22
  C:124FH         LINE#         23
  C:1251H         LINE#         24
  C:1253H         LINE#         25
  C:1255H         LINE#         26
  -------         ENDPROC       I2CRESTART
  -------         PROC          I2CSTOP
  C:1256H         LINE#         28
  C:1256H         LINE#         29
  C:1256H         LINE#         30
  C:1258H         LINE#         31
  C:125AH         LINE#         32
  C:125CH         LINE#         33
  C:125EH         LINE#         34
  -------         ENDPROC       I2CSTOP
  -------         PROC          I2CACK
  C:125FH         LINE#         36
  C:125FH         LINE#         37
  C:125FH         LINE#         38
  C:1261H         LINE#         39
  C:1263H         LINE#         40
  C:1265H         LINE#         41
  C:1267H         LINE#         42
  -------         ENDPROC       I2CACK
  -------         PROC          I2CNAK
  C:1268H         LINE#         44
  C:1268H         LINE#         45
  C:1268H         LINE#         46
  C:126AH         LINE#         47
  C:126CH         LINE#         48
  C:126EH         LINE#         49
  C:1270H         LINE#         50
  -------         ENDPROC       I2CNAK
  -------         PROC          _I2CSEND
  D:0007H         SYMBOL        Data
  -------         DO            
  D:0006H         SYMBOL        i
  D:0007H         SYMBOL        ack_bit
  -------         ENDDO         
  C:111BH         LINE#         52
  C:111BH         LINE#         53
  C:111BH         LINE#         55
  C:111DH         LINE#         56
  C:1121H         LINE#         57
  C:1125H         LINE#         59
  C:1127H         LINE#         60
BL51 BANKED LINKER/LOCATER V6.22                                                      07/08/2017  18:49:40  PAGE 13


  C:1129H         LINE#         61
  C:112AH         LINE#         62
  C:112BH         LINE#         63
  C:112CH         LINE#         64
  C:112EH         LINE#         65
  C:1132H         LINE#         66
  C:1136H         LINE#         67
  C:1138H         LINE#         68
  C:113AH         LINE#         69
  C:113BH         LINE#         70
  C:1140H         LINE#         71
  C:1142H         LINE#         73
  C:1142H         LINE#         74
  -------         ENDPROC       _I2CSEND
  -------         PROC          I2CREAD
  -------         DO            
  D:0006H         SYMBOL        i
  D:0007H         SYMBOL        Data
  -------         ENDDO         
  C:1185H         LINE#         75
  C:1185H         LINE#         76
  C:1185H         LINE#         77
  C:1187H         LINE#         78
  C:1188H         LINE#         79
  C:118AH         LINE#         80
  C:118DH         LINE#         81
  C:1190H         LINE#         82
  C:1196H         LINE#         83
  C:119AH         LINE#         84
  C:119CH         LINE#         85
  C:11A0H         LINE#         86
  C:11A0H         LINE#         87
  -------         ENDPROC       I2CREAD
  -------         ENDMOD        IIC_COMM

  -------         MODULE        ESP8266
  C:0000H         SYMBOL        _ICE_DUMMY_
  C:1271H         PUBLIC        _Serial0_SendChar
  B:00A8H.7       PUBLIC        EA
  D:0008H         PUBLIC        temp_dataT
  C:0F38H         PUBLIC        ABCshow
  C:11BCH         PUBLIC        Serial0_Init
  C:1066H         PUBLIC        ISR_USART0
  B:0098H.0       PUBLIC        RI
  C:0E65H         PUBLIC        ABC1Show
  B:0098H.1       PUBLIC        TI
  D:004EH         PUBLIC        count
  C:1143H         PUBLIC        _Serial0_SendInt
  C:102FH         PUBLIC        _Serial0_SendString1
  D:0087H         PUBLIC        PCON
  B:00A8H.4       PUBLIC        ES0
  B:0088H.4       PUBLIC        TR0
  D:0099H         PUBLIC        SBUF0
  D:0098H         PUBLIC        SCON0
  C:0FF8H         PUBLIC        _Serial0_SendString
  -------         PROC          SERIAL0_INIT
  C:11BCH         LINE#         13
BL51 BANKED LINKER/LOCATER V6.22                                                      07/08/2017  18:49:40  PAGE 14


  C:11BCH         LINE#         14
  C:11BCH         LINE#         15
  C:11C2H         LINE#         16
  C:11C8H         LINE#         17
  C:11CBH         LINE#         18
  C:11CEH         LINE#         19
  C:11D0H         LINE#         20
  C:11D2H         LINE#         21
  C:11D4H         LINE#         27
  -------         ENDPROC       SERIAL0_INIT
  -------         PROC          _SERIAL0_SENDSTRING
  D:0058H         SYMBOL        temp
  -------         DO            
  D:005BH         SYMBOL        i
  -------         ENDDO         
  C:0FF8H         LINE#         29
  C:0FFEH         LINE#         30
  C:0FFEH         LINE#         32
  C:1017H         LINE#         33
  C:1017H         LINE#         34
  C:102AH         LINE#         35
  C:102EH         LINE#         36
  -------         ENDPROC       _SERIAL0_SENDSTRING
  -------         PROC          _SERIAL0_SENDSTRING1
  D:0068H         SYMBOL        temp
  -------         DO            
  D:006BH         SYMBOL        i
  -------         ENDDO         
  C:102FH         LINE#         38
  C:1035H         LINE#         39
  C:1035H         LINE#         41
  C:104EH         LINE#         42
  C:104EH         LINE#         43
  C:1061H         LINE#         44
  C:1065H         LINE#         45
  -------         ENDPROC       _SERIAL0_SENDSTRING1
  -------         PROC          ABC1SHOW
  -------         DO            
  D:006CH         SYMBOL        h
  D:006DH         SYMBOL        l
  D:006EH         SYMBOL        i
  -------         ENDDO         
  C:0E65H         LINE#         47
  C:0E65H         LINE#         48
  C:0E65H         LINE#         50
  C:0E68H         LINE#         51
  C:0E6DH         LINE#         52
  C:0E72H         LINE#         53
  C:0E77H         LINE#         54
  C:0E7CH         LINE#         56
  C:0E86H         LINE#         57
  C:0E86H         LINE#         58
  C:0E92H         LINE#         59
  C:0E97H         LINE#         60
  C:0E9EH         LINE#         61
  C:0EA8H         LINE#         63
  C:0EB0H         LINE#         64
BL51 BANKED LINKER/LOCATER V6.22                                                      07/08/2017  18:49:40  PAGE 15


  C:0EB7H         LINE#         65
  C:0EC1H         LINE#         67
  C:0EC9H         LINE#         68
  C:0ECDH         LINE#         69
  C:0ED0H         LINE#         70
  -------         ENDPROC       ABC1SHOW
  -------         PROC          ABCSHOW
  -------         DO            
  D:0058H         SYMBOL        h
  D:0059H         SYMBOL        l
  D:005AH         SYMBOL        i
  -------         ENDDO         
  C:0F38H         LINE#         72
  C:0F38H         LINE#         73
  C:0F38H         LINE#         75
  C:0F3BH         LINE#         76
  C:0F40H         LINE#         77
  C:0F45H         LINE#         78
  C:0F4AH         LINE#         79
  C:0F4FH         LINE#         81
  C:0F59H         LINE#         82
  C:0F59H         LINE#         83
  C:0F6DH         LINE#         84
  C:0F74H         LINE#         86
  C:0F7EH         LINE#         87
  C:0F82H         LINE#         102
  C:0F85H         LINE#         103
  -------         ENDPROC       ABCSHOW
  -------         PROC          _SERIAL0_SENDINT
  D:0002H         SYMBOL        source
  C:1143H         LINE#         104
  C:1147H         LINE#         105
  C:1147H         LINE#         106
  C:1150H         LINE#         107
  C:1153H         LINE#         108
  C:1155H         LINE#         109
  C:1162H         LINE#         110
  C:1165H         LINE#         111
  C:1167H         LINE#         112
  -------         ENDPROC       _SERIAL0_SENDINT
  -------         PROC          _SERIAL0_SENDCHAR
  D:0007H         SYMBOL        source
  C:1271H         LINE#         114
  C:1271H         LINE#         115
  C:1271H         LINE#         116
  C:1273H         LINE#         117
  C:1276H         LINE#         118
  C:1278H         LINE#         119
  -------         ENDPROC       _SERIAL0_SENDCHAR
  -------         PROC          ISR_USART0
  -------         DO            
  D:004FH         SYMBOL        temp_data
  D:0050H         SYMBOL        h
  D:0051H         SYMBOL        l
  -------         ENDDO         
  C:1066H         LINE#         120
  C:106FH         LINE#         123
BL51 BANKED LINKER/LOCATER V6.22                                                      07/08/2017  18:49:40  PAGE 16


  C:1072H         LINE#         124
  C:1072H         LINE#         125
  C:1074H         LINE#         127
  C:107BH         LINE#         128
  C:107BH         LINE#         129
  C:1082H         LINE#         130
  C:1084H         LINE#         131
  C:108DH         LINE#         132
  C:108FH         LINE#         134
  C:108FH         LINE#         135
  C:1092H         LINE#         136
  C:1092H         LINE#         144
  C:1092H         LINE#         145
  -------         ENDPROC       ISR_USART0
  -------         ENDMOD        ESP8266

  -------         MODULE        SSD1306
  C:0000H         SYMBOL        _ICE_DUMMY_
  C:1099H         PUBLIC        ssd1306_clear
  C:0C2EH         PUBLIC        _ssd1306_printf
  C:0026H         PUBLIC        au8Font8x8
  C:0003H         PUBLIC        ssd1306_draw
  C:11EDH         PUBLIC        _writeData
  D:006FH         PUBLIC        m_pFramebuffer
  C:0DE7H         PUBLIC        ssd1306_initalize
  C:0FC0H         PUBLIC        _ssd1306_printchar
  C:11D5H         PUBLIC        _writeCommand
  -------         PROC          _WRITECOMMAND
  D:005FH         SYMBOL        cmd
  C:11D5H         LINE#         115
  C:11D7H         LINE#         116
  C:11D7H         LINE#         117
  C:11DAH         LINE#         118
  C:11DFH         LINE#         119
  C:11E4H         LINE#         120
  C:11E9H         LINE#         121
  C:11ECH         LINE#         122
  -------         ENDPROC       _WRITECOMMAND
  -------         PROC          _WRITEDATA
  D:005FH         SYMBOL        cmd
  C:11EDH         LINE#         124
  C:11EFH         LINE#         125
  C:11EFH         LINE#         126
  C:11F2H         LINE#         127
  C:11F7H         LINE#         128
  C:11FCH         LINE#         129
  C:1201H         LINE#         130
  C:1204H         LINE#         131
  -------         ENDPROC       _WRITEDATA
  -------         PROC          SSD1306_INITALIZE
  C:0DE7H         LINE#         132
  C:0DE7H         LINE#         133
  C:0DE7H         LINE#         141
  C:0DECH         LINE#         142
  C:0DF1H         LINE#         143
  C:0DF6H         LINE#         144
  C:0DFBH         LINE#         145
BL51 BANKED LINKER/LOCATER V6.22                                                      07/08/2017  18:49:40  PAGE 17


  C:0E00H         LINE#         146
  C:0E05H         LINE#         147
  C:0E0AH         LINE#         148
  C:0E0FH         LINE#         149
  C:0E14H         LINE#         150
  C:0E19H         LINE#         151
  C:0E1EH         LINE#         152
  C:0E23H         LINE#         153
  C:0E28H         LINE#         154
  C:0E2DH         LINE#         155
  C:0E32H         LINE#         156
  C:0E37H         LINE#         157
  C:0E3CH         LINE#         158
  C:0E41H         LINE#         159
  C:0E46H         LINE#         160
  C:0E4BH         LINE#         161
  C:0E50H         LINE#         162
  C:0E55H         LINE#         163
  C:0E5AH         LINE#         164
  C:0E5FH         LINE#         165
  C:0E64H         LINE#         168
  -------         ENDPROC       SSD1306_INITALIZE
  -------         PROC          SSD1306_CLEAR
  -------         DO            
  D:005BH         SYMBOL        i
  -------         ENDDO         
  C:1099H         LINE#         170
  C:1099H         LINE#         171
  C:1099H         LINE#         174
  C:109EH         LINE#         175
  C:10A3H         LINE#         176
  C:10A8H         LINE#         177
  C:10ADH         LINE#         179
  C:10B2H         LINE#         180
  C:10B2H         LINE#         181
  C:10B7H         LINE#         182
  C:10C8H         LINE#         183
  -------         ENDPROC       SSD1306_CLEAR
  -------         PROC          _SSD1306_PRINTCHAR
  D:005BH         SYMBOL        dat
  -------         DO            
  D:005CH         SYMBOL        i
  -------         ENDDO         
  C:0FC0H         LINE#         185
  C:0FC2H         LINE#         186
  C:0FC2H         LINE#         188
  C:0FC5H         LINE#         189
  C:0FC5H         LINE#         190
  C:0FEEH         LINE#         191
  C:0FF7H         LINE#         192
  -------         ENDPROC       _SSD1306_PRINTCHAR
  -------         PROC          SSD1306_DRAW
  -------         DO            
  D:0006H         SYMBOL        i
  D:0074H         SYMBOL        j
  -------         ENDDO         
  C:0003H         LINE#         194
BL51 BANKED LINKER/LOCATER V6.22                                                      07/08/2017  18:49:40  PAGE 18


  C:0003H         LINE#         195
  C:0003H         LINE#         198
  C:0008H         LINE#         199
  C:000DH         LINE#         200
  C:0012H         LINE#         202
  C:0022H         LINE#         204
  -------         ENDPROC       SSD1306_DRAW
  -------         PROC          _SSD1306_PRINTF
  D:0058H         SYMBOL        dat
  -------         DO            
  D:005BH         SYMBOL        i
  D:005DH         SYMBOL        j
  -------         ENDDO         
  C:0C2EH         LINE#         206
  C:0C34H         LINE#         207
  C:0C34H         LINE#         208
  C:0C39H         LINE#         209
  C:0C3DH         LINE#         211
  C:0C41H         LINE#         212
  C:0C46H         LINE#         213
  C:0C4BH         LINE#         214
  C:0C50H         LINE#         216
  C:0C70H         LINE#         217
  C:0C70H         LINE#         218
  C:0C8DH         LINE#         219
  C:0C92H         LINE#         220
  C:0CC3H         LINE#         222
  C:0CC8H         LINE#         223
  C:0D10H         LINE#         224
  C:0D1BH         LINE#         225
  C:0D4BH         LINE#         226
  C:0D5AH         LINE#         227
  -------         ENDPROC       _SSD1306_PRINTF
  -------         ENDMOD        SSD1306

  -------         MODULE        EZREGS
  C:0000H         SYMBOL        _ICE_DUMMY_
  X:E652H         PUBLIC        EP4FIFOIE
  X:E668H         PUBLIC        INTSETUP
  X:E600H         PUBLIC        CPUCS
  X:E654H         PUBLIC        EP6FIFOIE
  X:E680H         PUBLIC        USBCS
  X:E65FH         PUBLIC        EPIRQ
  X:E656H         PUBLIC        EP8FIFOIE
  X:E6F2H         PUBLIC        XGPIFSGLDATLNOX
  X:E6C0H         PUBLIC        GPIFWFSELECT
  X:E6F0H         PUBLIC        XGPIFSGLDATH
  X:E605H         PUBLIC        BREAKPT
  X:E609H         PUBLIC        FIFOPINPOLAR
  X:E640H         PUBLIC        EP2ISOINPKTS
  X:E678H         PUBLIC        I2CS
  X:E610H         PUBLIC        EP1OUTCFG
  X:E6F9H         PUBLIC        TESTCFG
  X:E641H         PUBLIC        EP4ISOINPKTS
  X:E68AH         PUBLIC        EP0BCH
  X:E661H         PUBLIC        GPIFIRQ
  X:E642H         PUBLIC        EP6ISOINPKTS
BL51 BANKED LINKER/LOCATER V6.22                                                      07/08/2017  18:49:40  PAGE 19


  X:E690H         PUBLIC        EP2BCH
  X:E643H         PUBLIC        EP8ISOINPKTS
  X:E694H         PUBLIC        EP4BCH
  X:E68BH         PUBLIC        EP0BCL
  X:E612H         PUBLIC        EP2CFG
  X:E698H         PUBLIC        EP6BCH
  X:E691H         PUBLIC        EP2BCL
  X:E613H         PUBLIC        EP4CFG
  X:E6A7H         PUBLIC        EP2FIFOFLGS
  X:E69CH         PUBLIC        EP8BCH
  X:E695H         PUBLIC        EP4BCL
  X:E628H         PUBLIC        ECCCFG
  X:E614H         PUBLIC        EP6CFG
  X:E6A8H         PUBLIC        EP4FIFOFLGS
  X:E699H         PUBLIC        EP6BCL
  X:E780H         PUBLIC        EP1OUTBUF
  X:E67BH         PUBLIC        XAUTODAT1
  X:E615H         PUBLIC        EP8CFG
  X:E6A9H         PUBLIC        EP6FIFOFLGS
  X:E69DH         PUBLIC        EP8BCL
  X:E67CH         PUBLIC        XAUTODAT2
  X:E684H         PUBLIC        USBFRAMEH
  X:E6F5H         PUBLIC        GPIFABORT
  X:E6AAH         PUBLIC        EP8FIFOFLGS
  X:E6F8H         PUBLIC        DBUG
  X:E740H         PUBLIC        EP0BUF
  X:E6CBH         PUBLIC        FLOWSTB
  X:E65EH         PUBLIC        EPIE
  X:E685H         PUBLIC        USBFRAMEL
  X:E681H         PUBLIC        SUSPEND
  X:E60CH         PUBLIC        GPIFHOLDAMOUNT
  X:E6D4H         PUBLIC        EP2GPIFTRIG
  X:E6C7H         PUBLIC        FLOWLOGIC
  X:E6DCH         PUBLIC        EP4GPIFTRIG
  X:E604H         PUBLIC        FIFORESET
  X:E6E4H         PUBLIC        EP6GPIFTRIG
  X:E6C2H         PUBLIC        GPIFIDLECTL
  X:E6FAH         PUBLIC        USBTEST
  X:E6B3H         PUBLIC        SUDPTRH
  X:E6ECH         PUBLIC        EP8GPIFTRIG
  X:E6D2H         PUBLIC        EP2GPIFFLGSEL
  X:E611H         PUBLIC        EP1INCFG
  X:E6B4H         PUBLIC        SUDPTRL
  X:E687H         PUBLIC        FNADDR
  X:E6DAH         PUBLIC        EP4GPIFFLGSEL
  X:E6D1H         PUBLIC        GPIFTCB0
  X:E6CDH         PUBLIC        FLOWSTBHPERIOD
  X:E6D0H         PUBLIC        GPIFTCB1
  X:E665H         PUBLIC        CLRERRCNT
  X:E6E2H         PUBLIC        EP6GPIFFLGSEL
  X:E6CFH         PUBLIC        GPIFTCB2
  X:E664H         PUBLIC        ERRCNTLIM
  X:E6CEH         PUBLIC        GPIFTCB3
  X:E6EAH         PUBLIC        EP8GPIFFLGSEL
  X:E660H         PUBLIC        GPIFIE
  X:E67FH         PUBLIC        UDMACRCQUAL
  X:E400H         PUBLIC        GPIF_WAVE_DATA
BL51 BANKED LINKER/LOCATER V6.22                                                      07/08/2017  18:49:40  PAGE 20


  X:E6CCH         PUBLIC        FLOWSTBEDGE
  X:E6ABH         PUBLIC        EP2FIFOBCH
  X:E7C0H         PUBLIC        EP1INBUF
  X:E6C6H         PUBLIC        FLOWSTATE
  X:E6ADH         PUBLIC        EP4FIFOBCH
  X:E6CAH         PUBLIC        FLOWHOLDOFF
  X:E618H         PUBLIC        EP2FIFOCFG
  X:E6AFH         PUBLIC        EP6FIFOBCH
  X:E6ACH         PUBLIC        EP2FIFOBCL
  X:E619H         PUBLIC        EP4FIFOCFG
  X:E6B1H         PUBLIC        EP8FIFOBCH
  X:E6AEH         PUBLIC        EP4FIFOBCL
  X:E649H         PUBLIC        OUTPKTEND
  X:E663H         PUBLIC        USBERRIRQ
  X:E61AH         PUBLIC        EP6FIFOCFG
  X:E6B0H         PUBLIC        EP6FIFOBCL
  X:E620H         PUBLIC        EP2AUTOINLENH
  X:E61BH         PUBLIC        EP8FIFOCFG
  X:E6B2H         PUBLIC        EP8FIFOBCL
  X:E68DH         PUBLIC        EP1OUTBC
  X:E622H         PUBLIC        EP4AUTOINLENH
  X:E666H         PUBLIC        INT2IVEC
  X:E659H         PUBLIC        IBNIRQ
  X:E6FBH         PUBLIC        CT1
  X:E6C4H         PUBLIC        GPIFADRH
  X:E65BH         PUBLIC        NAKIRQ
  X:E624H         PUBLIC        EP6AUTOINLENH
  X:E621H         PUBLIC        EP2AUTOINLENL
  X:E601H         PUBLIC        IFCONFIG
  X:E6FCH         PUBLIC        CT2
  X:E6B5H         PUBLIC        SUDPTRCTL
  X:E667H         PUBLIC        INT4IVEC
  X:E6FDH         PUBLIC        CT3
  X:E67DH         PUBLIC        UDMACRCH
  X:E626H         PUBLIC        EP8AUTOINLENH
  X:E623H         PUBLIC        EP4AUTOINLENL
  X:E6FEH         PUBLIC        CT4
  X:F000H         PUBLIC        EP2FIFOBUF
  X:E6C5H         PUBLIC        GPIFADRL
  X:E625H         PUBLIC        EP6AUTOINLENL
  X:E630H         PUBLIC        EP2FIFOPFH
  X:F400H         PUBLIC        EP4FIFOBUF
  X:E67EH         PUBLIC        UDMACRCL
  X:E627H         PUBLIC        EP8AUTOINLENL
  X:E6D3H         PUBLIC        EP2GPIFPFSTOP
  X:E683H         PUBLIC        TOGCTL
  X:E632H         PUBLIC        EP4FIFOPFH
  X:F800H         PUBLIC        EP6FIFOBUF
  X:E629H         PUBLIC        ECCRESET
  X:E6DBH         PUBLIC        EP4GPIFPFSTOP
  X:E634H         PUBLIC        EP6FIFOPFH
  X:E631H         PUBLIC        EP2FIFOPFL
  X:FC00H         PUBLIC        EP8FIFOBUF
  X:E60BH         PUBLIC        REVCTL
  X:E6E3H         PUBLIC        EP6GPIFPFSTOP
  X:E636H         PUBLIC        EP8FIFOPFH
  X:E633H         PUBLIC        EP4FIFOPFL
BL51 BANKED LINKER/LOCATER V6.22                                                      07/08/2017  18:49:40  PAGE 21


  X:E608H         PUBLIC        UART230
  X:E480H         PUBLIC        RES_WAVEDATA_END
  X:E6EBH         PUBLIC        EP8GPIFPFSTOP
  X:E679H         PUBLIC        I2DAT
  X:E635H         PUBLIC        EP6FIFOPFL
  X:E6A1H         PUBLIC        EP1OUTCS
  X:E637H         PUBLIC        EP8FIFOPFL
  X:E65DH         PUBLIC        USBIRQ
  X:E670H         PUBLIC        PORTACFG
  X:E671H         PUBLIC        PORTCCFG
  X:E651H         PUBLIC        EP2FIFOIRQ
  X:E602H         PUBLIC        PINFLAGSAB
  X:E6A0H         PUBLIC        EP0CS
  X:E6F4H         PUBLIC        GPIFREADYSTAT
  X:E6C3H         PUBLIC        GPIFCTLCFG
  X:E672H         PUBLIC        PORTECFG
  X:E653H         PUBLIC        EP4FIFOIRQ
  X:E6C1H         PUBLIC        GPIFIDLECS
  X:E6A3H         PUBLIC        EP2CS
  X:E509H         PUBLIC        GPCR2
  X:E67AH         PUBLIC        I2CTL
  X:E655H         PUBLIC        EP6FIFOIRQ
  X:E603H         PUBLIC        PINFLAGSCD
  X:E6A4H         PUBLIC        EP4CS
  X:E648H         PUBLIC        INPKTEND
  X:E657H         PUBLIC        EP8FIFOIRQ
  X:E6A5H         PUBLIC        EP6CS
  X:E6A6H         PUBLIC        EP8CS
  X:E68FH         PUBLIC        EP1INBC
  X:E662H         PUBLIC        USBERRIE
  X:E6C8H         PUBLIC        FLOWEQ0CTL
  X:E6C9H         PUBLIC        FLOWEQ1CTL
  X:E682H         PUBLIC        WAKEUPCS
  X:E6F1H         PUBLIC        XGPIFSGLDATLX
  X:E658H         PUBLIC        IBNIE
  X:E686H         PUBLIC        MICROFRAME
  X:E65AH         PUBLIC        NAKIE
  X:E6B8H         PUBLIC        SETUPDAT
  X:E62AH         PUBLIC        ECC1B0
  X:E62DH         PUBLIC        ECC2B0
  X:E62BH         PUBLIC        ECC1B1
  X:E6F3H         PUBLIC        GPIFREADYCFG
  X:E62EH         PUBLIC        ECC2B1
  X:E62CH         PUBLIC        ECC1B2
  X:E62FH         PUBLIC        ECC2B2
  X:E6A2H         PUBLIC        EP1INCS
  X:E606H         PUBLIC        BPADDRH
  X:E65CH         PUBLIC        USBIE
  X:E60AH         PUBLIC        REVID
  X:E607H         PUBLIC        BPADDRL
  X:E650H         PUBLIC        EP2FIFOIE
  -------         ENDMOD        EZREGS

  -------         MODULE        MQTTPACKET
  C:0000H         SYMBOL        _ICE_DUMMY_
  C:1288H         PUBLIC        MQTT_Connet
  C:0ED1H         PUBLIC        _MQTTPacket_encode
BL51 BANKED LINKER/LOCATER V6.22                                                      07/08/2017  18:49:40  PAGE 22


  -------         PROC          _MQTTPACKET_ENCODE
  D:0060H         SYMBOL        buf
  D:0063H         SYMBOL        length
  -------         DO            
  D:0065H         SYMBOL        rc
  -------         DO            
  D:0067H         SYMBOL        d
  -------         ENDDO         
  -------         ENDDO         
  C:0ED1H         LINE#         29
  C:0EDBH         LINE#         30
  C:0EDBH         LINE#         31
  C:0EE0H         LINE#         34
  C:0EE0H         LINE#         35
  C:0EEDH         LINE#         36
  C:0EFCH         LINE#         38
  C:0F09H         LINE#         39
  C:0F0CH         LINE#         40
  C:0F26H         LINE#         41
  C:0F33H         LINE#         42
  C:0F37H         LINE#         43
  -------         ENDPROC       _MQTTPACKET_ENCODE
  -------         PROC          MQTT_CONNET
  C:1288H         LINE#         83
  C:1288H         LINE#         84
  C:1288H         LINE#         88
  -------         ENDPROC       MQTT_CONNET
  -------         ENDMOD        MQTTPACKET

  -------         MODULE        ?C?COPY
  C:0969H         PUBLIC        ?C?COPY
  -------         ENDMOD        ?C?COPY

  -------         MODULE        ?C?CLDOPTR
  C:098FH         PUBLIC        ?C?CLDOPTR
  -------         ENDMOD        ?C?CLDOPTR

  -------         MODULE        ?C?CSTOPTR
  C:09BCH         PUBLIC        ?C?CSTOPTR
  -------         ENDMOD        ?C?CSTOPTR

  -------         MODULE        ?C?SIDIV
  C:09DEH         PUBLIC        ?C?SIDIV
  -------         ENDMOD        ?C?SIDIV

  -------         MODULE        STRLEN
  C:121AH         PUBLIC        _STRLEN
  -------         ENDMOD        STRLEN

  -------         MODULE        ?C?CLDPTR
  C:0A14H         PUBLIC        ?C?CLDPTR
  -------         ENDMOD        ?C?CLDPTR

  -------         MODULE        ?C?UIDIV
  C:0A2DH         PUBLIC        ?C?UIDIV
  -------         ENDMOD        ?C?UIDIV

BL51 BANKED LINKER/LOCATER V6.22                                                      07/08/2017  18:49:40  PAGE 23


*** WARNING L16: UNCALLED SEGMENT, IGNORED FOR OVERLAY PROCESS
    SEGMENT: ?PR?LEDKEYTEST?LED_KEY

*** WARNING L16: UNCALLED SEGMENT, IGNORED FOR OVERLAY PROCESS
    SEGMENT: ?PR?I2CRESTART?IIC_COMM

*** WARNING L16: UNCALLED SEGMENT, IGNORED FOR OVERLAY PROCESS
    SEGMENT: ?PR?I2CACK?IIC_COMM

*** WARNING L16: UNCALLED SEGMENT, IGNORED FOR OVERLAY PROCESS
    SEGMENT: ?PR?I2CNAK?IIC_COMM

*** WARNING L16: UNCALLED SEGMENT, IGNORED FOR OVERLAY PROCESS
    SEGMENT: ?PR?I2CREAD?IIC_COMM

*** WARNING L16: UNCALLED SEGMENT, IGNORED FOR OVERLAY PROCESS
    SEGMENT: ?PR?_SERIAL0_SENDSTRING1?ESP8266

*** WARNING L16: UNCALLED SEGMENT, IGNORED FOR OVERLAY PROCESS
    SEGMENT: ?PR?ABC1SHOW?ESP8266

*** WARNING L16: UNCALLED SEGMENT, IGNORED FOR OVERLAY PROCESS
    SEGMENT: ?PR?_SERIAL0_SENDINT?ESP8266

*** WARNING L16: UNCALLED SEGMENT, IGNORED FOR OVERLAY PROCESS
    SEGMENT: ?PR?SSD1306_DRAW?SSD1306

*** WARNING L16: UNCALLED SEGMENT, IGNORED FOR OVERLAY PROCESS
    SEGMENT: ?PR?_MQTTPACKET_ENCODE?MQTTPACKET

*** WARNING L16: UNCALLED SEGMENT, IGNORED FOR OVERLAY PROCESS
    SEGMENT: ?PR?MQTT_CONNET?MQTTPACKET

Program Size: data=119.0 xdata=4473 code=4745
LINK/LOCATE RUN COMPLETE.  11 WARNING(S),  0 ERROR(S)
